target datalayout = "e-m:e-p270:32:32-p271:32:32-p272:64:64-i64:64-i128:128-f80:128-n8:16:32:64-S128"
target triple = "x86_64-pc-linux-gnu"

%"class.std::filesystem::__cxx11::path" = type { %"class.std::__cxx11::basic_string", %"struct.std::filesystem::__cxx11::path::_List" }
%"class.std::__cxx11::basic_string" = type { %"struct.std::__cxx11::basic_string<char>::_Alloc_hider", i64, %union.anon }
%"struct.std::__cxx11::basic_string<char>::_Alloc_hider" = type { ptr }
%union.anon = type { i64, [8 x i8] }
%"struct.std::filesystem::__cxx11::path::_List" = type { %"class.std::unique_ptr" }
%"class.std::unique_ptr" = type { %"struct.std::__uniq_ptr_data" }
%"struct.std::__uniq_ptr_data" = type { %"class.std::__uniq_ptr_impl" }
%"class.std::__uniq_ptr_impl" = type { %"class.std::tuple" }
%"class.std::tuple" = type { %"struct.std::_Tuple_impl" }
%"struct.std::_Tuple_impl" = type { %"struct.std::_Head_base.1" }
%"struct.std::_Head_base.1" = type { ptr }
%"class.std::allocator" = type { i8 }
%"struct.gmx::File::NotFoundInfo" = type { ptr, ptr, ptr, i8, i32 }
%"class.std::filesystem::file_status" = type { i8, i32 }

@.str.10 = private unnamed_addr constant [2 x i8] c"r\00", align 1
@.str.11 = private unnamed_addr constant [30 x i8] c"The file could not be opened.\00", align 1
@.str.12 = private unnamed_addr constant [6 x i8] c"fopen\00", align 1
@.str.13 = private unnamed_addr constant [36 x i8] c"File information could not be read.\00", align 1
@.str.14 = private unnamed_addr constant [12 x i8] c"permissions\00", align 1
@.str.15 = private unnamed_addr constant [32 x i8] c"The file is not a regular file.\00", align 1
@.str.16 = private unnamed_addr constant [9 x i8] c"notafile\00", align 1

; Function Attrs: mustprogress nounwind uwtable
define linkonce_odr noundef signext i8 @_ZNKSt10filesystem11file_status4typeEv(ptr noundef nonnull align 4 dereferenceable(8) %0) #1 comdat align 2 {
  %2 = alloca ptr, align 8
  store ptr %0, ptr %2, align 8
  %3 = load ptr, ptr %2, align 8
  %4 = getelementptr inbounds %"class.std::filesystem::file_status", ptr %3, i32 0, i32 0
  %5 = load i8, ptr %4, align 4
  ret i8 %5
}

; Function Attrs: mustprogress nounwind uwtable
define linkonce_odr noundef zeroext i1 @_ZNSt10filesystem15is_regular_fileENS_11file_statusE(i64 %0) #1 comdat {
  %2 = alloca %"class.std::filesystem::file_status", align 4
  store i64 %0, ptr %2, align 4
  %3 = call noundef signext i8 @_ZNKSt10filesystem11file_status4typeEv(ptr noundef nonnull align 4 dereferenceable(8) %2) #13
  %4 = icmp eq i8 %3, 1
  ret i1 %4
}

; Function Attrs: mustprogress uwtable
define linkonce_odr void @_ZNKSt10filesystem7__cxx114path6stringIcSt11char_traitsIcESaIcEEENSt7__cxx1112basic_stringIT_T0_T1_EERKSA_(ptr dead_on_unwind noalias writable sret(%"class.std::__cxx11::basic_string") align 8 %0, ptr noundef nonnull align 8 dereferenceable(40) %1, ptr noundef nonnull align 1 dereferenceable(1) %2) #0 comdat align 2 {
  %4 = alloca ptr, align 8
  %5 = alloca ptr, align 8
  %6 = alloca ptr, align 8
  store ptr %0, ptr %4, align 8
  store ptr %1, ptr %5, align 8
  store ptr %2, ptr %6, align 8
  %7 = load ptr, ptr %5, align 8
  %8 = getelementptr inbounds %"class.std::filesystem::__cxx11::path", ptr %7, i32 0, i32 0
  %9 = call noundef ptr @_ZNKSt7__cxx1112basic_stringIcSt11char_traitsIcESaIcEE5c_strEv(ptr noundef nonnull align 8 dereferenceable(32) %8) #13
  %10 = getelementptr inbounds %"class.std::filesystem::__cxx11::path", ptr %7, i32 0, i32 0
  %11 = call noundef i64 @_ZNKSt7__cxx1112basic_stringIcSt11char_traitsIcESaIcEE6lengthEv(ptr noundef nonnull align 8 dereferenceable(32) %10) #13
  %12 = load ptr, ptr %6, align 8
  call void @_ZNSt7__cxx1112basic_stringIcSt11char_traitsIcESaIcEEC1EPKcmRKS3_(ptr noundef nonnull align 8 dereferenceable(32) %0, ptr noundef %9, i64 noundef %11, ptr noundef nonnull align 1 dereferenceable(1) %12)
  ret void
}

; Function Attrs: mustprogress uwtable
define linkonce_odr noundef zeroext i1 @_ZNSt10filesystem15is_regular_fileERKNS_7__cxx114pathE(ptr noundef nonnull align 8 dereferenceable(40) %0) #0 comdat {
  %2 = alloca ptr, align 8
  %3 = alloca %"class.std::filesystem::file_status", align 4
  store ptr %0, ptr %2, align 8
  %4 = load ptr, ptr %2, align 8
  %5 = call i64 @_ZNSt10filesystem6statusERKNS_7__cxx114pathE(ptr noundef nonnull align 8 dereferenceable(40) %4)
  store i64 %5, ptr %3, align 4
  %6 = load i64, ptr %3, align 4
  %7 = call noundef zeroext i1 @_ZNSt10filesystem15is_regular_fileENS_11file_statusE(i64 %6) #13
  ret i1 %7
}

; Function Attrs: mustprogress nounwind uwtable
define linkonce_odr noundef i32 @_ZNKSt10filesystem11file_status11permissionsEv(ptr noundef nonnull align 4 dereferenceable(8) %0) #1 comdat align 2 {
  %2 = alloca ptr, align 8
  store ptr %0, ptr %2, align 8
  %3 = load ptr, ptr %2, align 8
  %4 = getelementptr inbounds %"class.std::filesystem::file_status", ptr %3, i32 0, i32 1
  %5 = load i32, ptr %4, align 4
  ret i32 %5
}

; Function Attrs: mustprogress nounwind uwtable
define linkonce_odr void @_ZN3gmx4File12NotFoundInfoC2ERKNSt10filesystem7__cxx114pathEPKcS8_bi(ptr noundef nonnull align 8 dereferenceable(32) %0, ptr noundef nonnull align 8 dereferenceable(40) %1, ptr noundef %2, ptr noundef %3, i1 noundef zeroext %4, i32 noundef %5) unnamed_addr #1 comdat align 2 {
  %7 = alloca ptr, align 8
  %8 = alloca ptr, align 8
  %9 = alloca ptr, align 8
  %10 = alloca ptr, align 8
  %11 = alloca i8, align 1
  %12 = alloca i32, align 4
  store ptr %0, ptr %7, align 8
  store ptr %1, ptr %8, align 8
  store ptr %2, ptr %9, align 8
  store ptr %3, ptr %10, align 8
  %13 = zext i1 %4 to i8
  store i8 %13, ptr %11, align 1
  store i32 %5, ptr %12, align 4
  %14 = load ptr, ptr %7, align 8
  %15 = getelementptr inbounds %"struct.gmx::File::NotFoundInfo", ptr %14, i32 0, i32 0
  %16 = load ptr, ptr %8, align 8
  store ptr %16, ptr %15, align 8
  %17 = getelementptr inbounds %"struct.gmx::File::NotFoundInfo", ptr %14, i32 0, i32 1
  %18 = load ptr, ptr %9, align 8
  store ptr %18, ptr %17, align 8
  %19 = getelementptr inbounds %"struct.gmx::File::NotFoundInfo", ptr %14, i32 0, i32 2
  %20 = load ptr, ptr %10, align 8
  store ptr %20, ptr %19, align 8
  %21 = getelementptr inbounds %"struct.gmx::File::NotFoundInfo", ptr %14, i32 0, i32 3
  %22 = load i8, ptr %11, align 1
  %23 = trunc i8 %22 to i1
  %24 = zext i1 %23 to i8
  store i8 %24, ptr %21, align 8
  %25 = getelementptr inbounds %"struct.gmx::File::NotFoundInfo", ptr %14, i32 0, i32 4
  %26 = load i32, ptr %12, align 4
  store i32 %26, ptr %25, align 4
  ret void
}

; Function Attrs: mustprogress uwtable
define linkonce_odr void @_ZNKSt10filesystem7__cxx114path6stringEv(ptr dead_on_unwind noalias writable sret(%"class.std::__cxx11::basic_string") align 8 %0, ptr noundef nonnull align 8 dereferenceable(40) %1) #0 comdat align 2 personality ptr @__gxx_personality_v0 {
  %3 = alloca ptr, align 8
  %4 = alloca ptr, align 8
  %5 = alloca %"class.std::allocator", align 1
  %6 = alloca ptr, align 8
  %7 = alloca i32, align 4
  store ptr %0, ptr %3, align 8
  store ptr %1, ptr %4, align 8
  %8 = load ptr, ptr %4, align 8
  call void @_ZNSaIcEC1Ev(ptr noundef nonnull align 1 dereferenceable(1) %5) #13
  invoke void @_ZNKSt10filesystem7__cxx114path6stringIcSt11char_traitsIcESaIcEEENSt7__cxx1112basic_stringIT_T0_T1_EERKSA_(ptr dead_on_unwind writable sret(%"class.std::__cxx11::basic_string") align 8 %0, ptr noundef nonnull align 8 dereferenceable(40) %8, ptr noundef nonnull align 1 dereferenceable(1) %5)
          to label %9 unwind label %10

9:                                                ; preds = %2
  call void @_ZNSaIcED1Ev(ptr noundef nonnull align 1 dereferenceable(1) %5) #13
  ret void

10:                                               ; preds = %2
  %11 = landingpad { ptr, i32 }
          cleanup
  %12 = extractvalue { ptr, i32 } %11, 0
  store ptr %12, ptr %6, align 8
  %13 = extractvalue { ptr, i32 } %11, 1
  store i32 %13, ptr %7, align 4
  call void @_ZNSaIcED1Ev(ptr noundef nonnull align 1 dereferenceable(1) %5) #13
  br label %14

14:                                               ; preds = %10
  %15 = load ptr, ptr %6, align 8
  %16 = load i32, ptr %7, align 4
  %17 = insertvalue { ptr, i32 } poison, ptr %15, 0
  %18 = insertvalue { ptr, i32 } %17, i32 %16, 1
  resume { ptr, i32 } %18
}

; Function Attrs: mustprogress nounwind uwtable
define linkonce_odr noundef zeroext i1 @_ZNKSt10filesystem7__cxx114path5emptyEv(ptr noundef nonnull align 8 dereferenceable(40) %0) #1 comdat align 2 {
  %2 = alloca ptr, align 8
  store ptr %0, ptr %2, align 8
  %3 = load ptr, ptr %2, align 8
  %4 = getelementptr inbounds %"class.std::filesystem::__cxx11::path", ptr %3, i32 0, i32 0
  %5 = call noundef zeroext i1 @_ZNKSt7__cxx1112basic_stringIcSt11char_traitsIcESaIcEE5emptyEv(ptr noundef nonnull align 8 dereferenceable(32) %4) #13
  ret i1 %5
}

; Function Attrs: mustprogress uwtable
define noundef zeroext i1 @_ZN3gmx4File6existsERKNSt10filesystem7__cxx114pathEPFvRKNS0_12NotFoundInfoEE(ptr noundef nonnull align 8 dereferenceable(40) %0, ptr noundef %1) #0 align 2 personality ptr @__gxx_personality_v0 {
  %3 = alloca i1, align 1
  %4 = alloca ptr, align 8
  %5 = alloca ptr, align 8
  %6 = alloca ptr, align 8
  %7 = alloca %"class.std::__cxx11::basic_string", align 8
  %8 = alloca ptr, align 8
  %9 = alloca i32, align 4
  %10 = alloca i8, align 1
  %11 = alloca %"struct.gmx::File::NotFoundInfo", align 8
  %12 = alloca %"class.std::filesystem::file_status", align 4
  %13 = alloca %"struct.gmx::File::NotFoundInfo", align 8
  %14 = alloca %"struct.gmx::File::NotFoundInfo", align 8
  store ptr %0, ptr %4, align 8
  store ptr %1, ptr %5, align 8
  %15 = load ptr, ptr %4, align 8
  %16 = call noundef zeroext i1 @_ZNKSt10filesystem7__cxx114path5emptyEv(ptr noundef nonnull align 8 dereferenceable(40) %15) #13
  br i1 %16, label %17, label %18

17:                                               ; preds = %2
  store i1 false, ptr %3, align 1
  br label %63

18:                                               ; preds = %2
  %19 = load ptr, ptr %4, align 8
  call void @_ZNKSt10filesystem7__cxx114path6stringEv(ptr dead_on_unwind writable sret(%"class.std::__cxx11::basic_string") align 8 %7, ptr noundef nonnull align 8 dereferenceable(40) %19)
  %20 = call noundef ptr @_ZNKSt7__cxx1112basic_stringIcSt11char_traitsIcESaIcEE5c_strEv(ptr noundef nonnull align 8 dereferenceable(32) %7) #13
  %21 = invoke noalias ptr @fopen(ptr noundef %20, ptr noundef @.str.10)
          to label %22 unwind label %42

22:                                               ; preds = %18
  call void @_ZNSt7__cxx1112basic_stringIcSt11char_traitsIcESaIcEED1Ev(ptr noundef nonnull align 8 dereferenceable(32) %7) #13
  store ptr %21, ptr %6, align 8
  %23 = load ptr, ptr %6, align 8
  %24 = icmp eq ptr %23, null
  br i1 %24, label %25, label %46

25:                                               ; preds = %22
  %26 = call ptr @__errno_location() #19
  %27 = load i32, ptr %26, align 4
  %28 = icmp ne i32 %27, 2
  br i1 %28, label %29, label %33

29:                                               ; preds = %25
  %30 = call ptr @__errno_location() #19
  %31 = load i32, ptr %30, align 4
  %32 = icmp ne i32 %31, 20
  br label %33

33:                                               ; preds = %29, %25
  %34 = phi i1 [ false, %25 ], [ %32, %29 ]
  %35 = zext i1 %34 to i8
  store i8 %35, ptr %10, align 1
  %36 = load ptr, ptr %4, align 8
  %37 = load i8, ptr %10, align 1
  %38 = trunc i8 %37 to i1
  %39 = call ptr @__errno_location() #19
  %40 = load i32, ptr %39, align 4
  call void @_ZN3gmx4File12NotFoundInfoC2ERKNSt10filesystem7__cxx114pathEPKcS8_bi(ptr noundef nonnull align 8 dereferenceable(32) %11, ptr noundef nonnull align 8 dereferenceable(40) %36, ptr noundef @.str.11, ptr noundef @.str.12, i1 noundef zeroext %38, i32 noundef %40)
  %41 = load ptr, ptr %5, align 8
  call void %41(ptr noundef nonnull align 8 dereferenceable(32) %11)
  store i1 false, ptr %3, align 1
  br label %63

42:                                               ; preds = %18
  %43 = landingpad { ptr, i32 }
          cleanup
  %44 = extractvalue { ptr, i32 } %43, 0
  store ptr %44, ptr %8, align 8
  %45 = extractvalue { ptr, i32 } %43, 1
  store i32 %45, ptr %9, align 4
  call void @_ZNSt7__cxx1112basic_stringIcSt11char_traitsIcESaIcEED1Ev(ptr noundef nonnull align 8 dereferenceable(32) %7) #13
  br label %65

46:                                               ; preds = %22
  %47 = load ptr, ptr %6, align 8
  %48 = call i32 @fclose(ptr noundef %47)
  %49 = load ptr, ptr %4, align 8
  %50 = call i64 @_ZNSt10filesystem6statusERKNS_7__cxx114pathE(ptr noundef nonnull align 8 dereferenceable(40) %49)
  store i64 %50, ptr %12, align 4
  %51 = call noundef i32 @_ZNKSt10filesystem11file_status11permissionsEv(ptr noundef nonnull align 4 dereferenceable(8) %12) #13
  %52 = icmp eq i32 %51, 65535
  br i1 %52, label %53, label %56

53:                                               ; preds = %46
  %54 = load ptr, ptr %4, align 8
  call void @_ZN3gmx4File12NotFoundInfoC2ERKNSt10filesystem7__cxx114pathEPKcS8_bi(ptr noundef nonnull align 8 dereferenceable(32) %13, ptr noundef nonnull align 8 dereferenceable(40) %54, ptr noundef @.str.13, ptr noundef @.str.14, i1 noundef zeroext true, i32 noundef 0)
  %55 = load ptr, ptr %5, align 8
  call void %55(ptr noundef nonnull align 8 dereferenceable(32) %13)
  store i1 false, ptr %3, align 1
  br label %63

56:                                               ; preds = %46
  %57 = load ptr, ptr %4, align 8
  %58 = call noundef zeroext i1 @_ZNSt10filesystem15is_regular_fileERKNS_7__cxx114pathE(ptr noundef nonnull align 8 dereferenceable(40) %57)
  br i1 %58, label %62, label %59

59:                                               ; preds = %56
  %60 = load ptr, ptr %4, align 8
  call void @_ZN3gmx4File12NotFoundInfoC2ERKNSt10filesystem7__cxx114pathEPKcS8_bi(ptr noundef nonnull align 8 dereferenceable(32) %14, ptr noundef nonnull align 8 dereferenceable(40) %60, ptr noundef @.str.15, ptr noundef @.str.16, i1 noundef zeroext true, i32 noundef 0)
  %61 = load ptr, ptr %5, align 8
  call void %61(ptr noundef nonnull align 8 dereferenceable(32) %14)
  store i1 false, ptr %3, align 1
  br label %63

62:                                               ; preds = %56
  store i1 true, ptr %3, align 1
  br label %63

63:                                               ; preds = %62, %59, %53, %33, %17
  %64 = load i1, ptr %3, align 1
  ret i1 %64

65:                                               ; preds = %42
  %66 = load ptr, ptr %8, align 8
  %67 = load i32, ptr %9, align 4
  %68 = insertvalue { ptr, i32 } poison, ptr %66, 0
  %69 = insertvalue { ptr, i32 } %68, i32 %67, 1
  resume { ptr, i32 } %69
}