; Function Attrs: mustprogress uwtable
define noundef zeroext i1 @_ZN3gmx4File6existsERKNSt10filesystem7__cxx114pathEPFvRKNS0_12NotFoundInfoEE(ptr noundef nonnull align 8 dereferenceable(40) %0, ptr nocapture noundef readonly %1) local_unnamed_addr #0 align 2 personality ptr @__gxx_personality_v0 {
  %3 = alloca %"class.std::allocator", align 1
  %4 = alloca %"class.std::__cxx11::basic_string", align 8
  %5 = alloca %"struct.gmx::File::NotFoundInfo", align 8
  %6 = alloca %"struct.gmx::File::NotFoundInfo", align 8
  %7 = alloca %"struct.gmx::File::NotFoundInfo", align 8
  %8 = tail call noundef zeroext i1 @_ZNKSt7__cxx1112basic_stringIcSt11char_traitsIcESaIcEE5emptyEv(ptr noundef nonnull align 8 dereferenceable(32) %0) #20
  %.sink24.sroa.gep = getelementptr inbounds i8, ptr %7, i64 8
  %.sink24.sroa.gep25 = getelementptr inbounds i8, ptr %6, i64 8
  %.sink24.sroa.gep26 = getelementptr inbounds i8, ptr %5, i64 8
  %.sink24.sroa.gep28 = getelementptr inbounds i8, ptr %7, i64 16
  %.sink24.sroa.gep29 = getelementptr inbounds i8, ptr %6, i64 16
  %.sink24.sroa.gep30 = getelementptr inbounds i8, ptr %5, i64 16
  %.sink24.sroa.gep32 = getelementptr inbounds i8, ptr %7, i64 24
  %.sink24.sroa.gep33 = getelementptr inbounds i8, ptr %6, i64 24
  %.sink24.sroa.gep34 = getelementptr inbounds i8, ptr %5, i64 24
  %.sink24.sroa.gep36 = getelementptr inbounds i8, ptr %7, i64 28
  %.sink24.sroa.gep37 = getelementptr inbounds i8, ptr %6, i64 28
  %.sink24.sroa.gep38 = getelementptr inbounds i8, ptr %5, i64 28
  br i1 %8, label %32, label %9

9:                                                ; preds = %2
  call void @llvm.lifetime.start.p0(i64 1, ptr nonnull %3)
  call void @_ZNSaIcEC1Ev(ptr noundef nonnull align 1 dereferenceable(1) %3) #20, !noalias !67
  %10 = call noundef ptr @_ZNKSt7__cxx1112basic_stringIcSt11char_traitsIcESaIcEE5c_strEv(ptr noundef nonnull align 8 dereferenceable(32) %0) #20, !noalias !70
  %11 = call noundef i64 @_ZNKSt7__cxx1112basic_stringIcSt11char_traitsIcESaIcEE6lengthEv(ptr noundef nonnull align 8 dereferenceable(32) %0) #20, !noalias !70
  invoke void @_ZNSt7__cxx1112basic_stringIcSt11char_traitsIcESaIcEEC1EPKcmRKS3_(ptr noundef nonnull align 8 dereferenceable(32) %4, ptr noundef %10, i64 noundef %11, ptr noundef nonnull align 1 dereferenceable(1) %3)
          to label %_ZNKSt10filesystem7__cxx114path6stringEv.exit unwind label %12

12:                                               ; preds = %9
  %13 = landingpad { ptr, i32 }
          cleanup
  call void @_ZNSaIcED1Ev(ptr noundef nonnull align 1 dereferenceable(1) %3) #20
  resume { ptr, i32 } %13

_ZNKSt10filesystem7__cxx114path6stringEv.exit:    ; preds = %9
  call void @_ZNSaIcED1Ev(ptr noundef nonnull align 1 dereferenceable(1) %3) #20
  call void @llvm.lifetime.end.p0(i64 1, ptr nonnull %3)
  %14 = call noundef ptr @_ZNKSt7__cxx1112basic_stringIcSt11char_traitsIcESaIcEE5c_strEv(ptr noundef nonnull align 8 dereferenceable(32) %4) #20
  %15 = call noalias ptr @fopen(ptr noundef %14, ptr noundef nonnull @.str.10)
  call void @_ZNSt7__cxx1112basic_stringIcSt11char_traitsIcESaIcEED1Ev(ptr noundef nonnull align 8 dereferenceable(32) %4) #20
  %16 = icmp eq ptr %15, null
  br i1 %16, label %17, label %22

17:                                               ; preds = %_ZNKSt10filesystem7__cxx114path6stringEv.exit
  %18 = tail call ptr @__errno_location() #26
  %19 = load i32, ptr %18, align 4
  %.not = icmp ne i32 %19, 2
  %20 = icmp ne i32 %19, 20
  %spec.select = and i1 %.not, %20
  %21 = zext i1 %spec.select to i8
  store ptr %0, ptr %5, align 8
  br label %.sink.split

22:                                               ; preds = %_ZNKSt10filesystem7__cxx114path6stringEv.exit
  %23 = call i32 @fclose(ptr noundef nonnull %15)
  %24 = call i64 @_ZNSt10filesystem6statusERKNS_7__cxx114pathE(ptr noundef nonnull align 8 dereferenceable(40) %0)
  %.sroa.1.0.extract.shift.mask = and i64 %24, -4294967296
  %25 = icmp eq i64 %.sroa.1.0.extract.shift.mask, 281470681743360
  br i1 %25, label %26, label %27

26:                                               ; preds = %22
  store ptr %0, ptr %6, align 8
  br label %.sink.split

27:                                               ; preds = %22
  %28 = call i64 @_ZNSt10filesystem6statusERKNS_7__cxx114pathE(ptr noundef nonnull align 8 dereferenceable(40) %0)
  %29 = and i64 %28, 255
  %30 = icmp eq i64 %29, 1
  br i1 %30, label %32, label %31

31:                                               ; preds = %27
  store ptr %0, ptr %7, align 8
  br label %.sink.split

.sink.split:                                      ; preds = %17, %26, %31
  %.sink24.sroa.phi = phi ptr [ %.sink24.sroa.gep, %31 ], [ %.sink24.sroa.gep25, %26 ], [ %.sink24.sroa.gep26, %17 ]
  %.sink24.sroa.phi27 = phi ptr [ %.sink24.sroa.gep28, %31 ], [ %.sink24.sroa.gep29, %26 ], [ %.sink24.sroa.gep30, %17 ]
  %.sink24.sroa.phi31 = phi ptr [ %.sink24.sroa.gep32, %31 ], [ %.sink24.sroa.gep33, %26 ], [ %.sink24.sroa.gep34, %17 ]
  %.sink24.sroa.phi35 = phi ptr [ %.sink24.sroa.gep36, %31 ], [ %.sink24.sroa.gep37, %26 ], [ %.sink24.sroa.gep38, %17 ]
  %.sink24 = phi ptr [ %7, %31 ], [ %6, %26 ], [ %5, %17 ]
  %.str.15.sink = phi ptr [ @.str.15, %31 ], [ @.str.13, %26 ], [ @.str.11, %17 ]
  %.str.16.sink = phi ptr [ @.str.16, %31 ], [ @.str.14, %26 ], [ @.str.12, %17 ]
  %.sink18 = phi i8 [ 1, %31 ], [ 1, %26 ], [ %21, %17 ]
  %.sink15 = phi i32 [ 0, %31 ], [ 0, %26 ], [ %19, %17 ]
  store ptr %.str.15.sink, ptr %.sink24.sroa.phi, align 8
  store ptr %.str.16.sink, ptr %.sink24.sroa.phi27, align 8
  store i8 %.sink18, ptr %.sink24.sroa.phi31, align 8
  store i32 %.sink15, ptr %.sink24.sroa.phi35, align 4
  call void %1(ptr noundef nonnull align 8 dereferenceable(32) %.sink24)
  br label %32

32:                                               ; preds = %.sink.split, %27, %2
  %.0 = phi i1 [ false, %2 ], [ true, %27 ], [ false, %.sink.split ]
  ret i1 %.0
}